target datalayout = "e-m:e-p270:32:32-p271:32:32-p272:64:64-i64:64-i128:128-f80:128-n8:16:32:64-S128"
target triple = "x86_64-pc-linux-gnu"

%struct._lv_global_t = type { i8, i8, %struct.lv_ll_t, ptr, ptr, %struct.lv_ll_t, i8, i32, i32, ptr, %struct.lv_ll_t, ptr, %struct.lv_ll_t, ptr, ptr, i32, ptr, i8, i32, i32, ptr, i32, %struct.lv_timer_state_t, %struct.lv_anim_state_t, %struct.lv_tick_state_t, %struct._lv_draw_buf_handlers_t, %struct._lv_draw_buf_handlers_t, %struct._lv_draw_buf_handlers_t, %struct.lv_ll_t, ptr, ptr, %struct.lv_draw_global_info_t, [4 x %struct.lv_draw_sw_mask_radius_circle_dsc_t], ptr, ptr, ptr, %struct.lv_tlsf_state_t, %struct.lv_ll_t, ptr, ptr, %struct.lv_style_t, i64, ptr, i32, ptr }
%struct.lv_timer_state_t = type { %struct.lv_ll_t, i8, i8, i8, i8, i32, i8, i32, i32, i32, i32, ptr, ptr }
%struct.lv_anim_state_t = type { i8, i8, ptr, %struct.lv_ll_t }
%struct.lv_tick_state_t = type { i32, i8, ptr, ptr }
%struct._lv_draw_buf_handlers_t = type { ptr, ptr, ptr, ptr, ptr, ptr }
%struct.lv_draw_global_info_t = type { ptr, i32, i32, i32, i32, i8 }
%struct.lv_draw_sw_mask_radius_circle_dsc_t = type { ptr, ptr, ptr, ptr, i32, i32, i32 }
%struct.lv_tlsf_state_t = type { ptr, i64, i64, %struct.lv_ll_t }
%struct.lv_ll_t = type { i32, ptr, ptr }
%struct.lv_style_t = type { ptr, i32, i8 }
%struct._lv_freetype_context_t = type { ptr, %struct.lv_ll_t, ptr, i32, ptr }
%struct._lv_freetype_font_dsc_t = type { i32, %struct._lv_font_t, i32, i32, i32, ptr, ptr, ptr, ptr }
%struct._lv_font_t = type { ptr, ptr, ptr, i32, i32, i8, i8, i8, ptr, ptr, ptr }
%struct.face_id_node_t = type { ptr, i32 }

@lv_global = external global %struct._lv_global_t, align 8

; Function Attrs: inlinehint nounwind uwtable
define internal void @lv_memzero(ptr noundef %0, i64 noundef %1) #5 {
  %3 = alloca ptr, align 8
  %4 = alloca i64, align 8
  store ptr %0, ptr %3, align 8, !tbaa !20
  store i64 %1, ptr %4, align 8, !tbaa !33
  %5 = load ptr, ptr %3, align 8, !tbaa !20
  %6 = load i64, ptr %4, align 8, !tbaa !33
  call void @lv_memset(ptr noundef %5, i8 noundef zeroext 0, i64 noundef %6)
  ret void
}

; Function Attrs: nounwind uwtable
define internal void @lv_freetype_drop_face_id(ptr noundef %0, ptr noundef %1) #0 {
  %3 = alloca ptr, align 8
  %4 = alloca ptr, align 8
  %5 = alloca ptr, align 8
  %6 = alloca ptr, align 8
  %7 = alloca i32, align 4
  store ptr %0, ptr %3, align 8, !tbaa !20
  store ptr %1, ptr %4, align 8, !tbaa !20
  call void @llvm.lifetime.start.p0(i64 8, ptr %5) #7
  %8 = load ptr, ptr %3, align 8, !tbaa !20
  %9 = getelementptr inbounds nuw %struct._lv_freetype_context_t, ptr %8, i32 0, i32 1
  store ptr %9, ptr %5, align 8, !tbaa !20
  call void @llvm.lifetime.start.p0(i64 8, ptr %6) #7
  %10 = load ptr, ptr %5, align 8, !tbaa !20
  %11 = call ptr @lv_ll_get_head(ptr noundef %10)
  store ptr %11, ptr %6, align 8, !tbaa !20
  br label %12

12:                                               ; preds = %45, %2
  %13 = load ptr, ptr %6, align 8, !tbaa !20
  %14 = icmp ne ptr %13, null
  br i1 %14, label %15, label %49

15:                                               ; preds = %12
  %16 = load ptr, ptr %4, align 8, !tbaa !20
  %17 = load ptr, ptr %6, align 8, !tbaa !20
  %18 = getelementptr inbounds nuw %struct.face_id_node_t, ptr %17, i32 0, i32 0
  %19 = load ptr, ptr %18, align 8, !tbaa !68
  %20 = icmp eq ptr %16, %19
  br i1 %20, label %21, label %44

21:                                               ; preds = %15
  br label %22

22:                                               ; preds = %21
  br label %23

23:                                               ; preds = %22
  br label %24

24:                                               ; preds = %23
  %25 = load ptr, ptr %6, align 8, !tbaa !20
  %26 = getelementptr inbounds nuw %struct.face_id_node_t, ptr %25, i32 0, i32 1
  %27 = load i32, ptr %26, align 8, !tbaa !70
  %28 = add nsw i32 %27, -1
  store i32 %28, ptr %26, align 8, !tbaa !70
  %29 = load ptr, ptr %6, align 8, !tbaa !20
  %30 = getelementptr inbounds nuw %struct.face_id_node_t, ptr %29, i32 0, i32 1
  %31 = load i32, ptr %30, align 8, !tbaa !70
  %32 = icmp eq i32 %31, 0
  br i1 %32, label %33, label %43

33:                                               ; preds = %24
  br label %34

34:                                               ; preds = %33
  br label %35

35:                                               ; preds = %34
  br label %36

36:                                               ; preds = %35
  %37 = load ptr, ptr %5, align 8, !tbaa !20
  %38 = load ptr, ptr %6, align 8, !tbaa !20
  call void @lv_ll_remove(ptr noundef %37, ptr noundef %38)
  %39 = load ptr, ptr %6, align 8, !tbaa !20
  %40 = getelementptr inbounds nuw %struct.face_id_node_t, ptr %39, i32 0, i32 0
  %41 = load ptr, ptr %40, align 8, !tbaa !68
  call void @lv_free(ptr noundef %41)
  %42 = load ptr, ptr %6, align 8, !tbaa !20
  call void @lv_free(ptr noundef %42)
  br label %43

43:                                               ; preds = %36, %24
  store i32 1, ptr %7, align 4
  br label %58

44:                                               ; preds = %15
  br label %45

45:                                               ; preds = %44
  %46 = load ptr, ptr %5, align 8, !tbaa !20
  %47 = load ptr, ptr %6, align 8, !tbaa !20
  %48 = call ptr @lv_ll_get_next(ptr noundef %46, ptr noundef %47)
  store ptr %48, ptr %6, align 8, !tbaa !20
  br label %12, !llvm.loop !73

49:                                               ; preds = %12
  br label %50

50:                                               ; preds = %49
  br label %51

51:                                               ; preds = %50
  br label %52

52:                                               ; preds = %51
  br label %53

53:                                               ; preds = %52
  br label %54

54:                                               ; preds = %55, %53
  br label %55

55:                                               ; preds = %54
  br label %54

56:                                               ; No predecessors!
  br label %57

57:                                               ; preds = %56
  store i32 0, ptr %7, align 4
  br label %58

58:                                               ; preds = %57, %43
  call void @llvm.lifetime.end.p0(i64 8, ptr %6) #7
  call void @llvm.lifetime.end.p0(i64 8, ptr %5) #7
  %59 = load i32, ptr %7, align 4
  switch i32 %59, label %61 [
    i32 0, label %60
    i32 1, label %60
  ]

60:                                               ; preds = %58, %58
  ret void

61:                                               ; preds = %58
  unreachable
}

; Function Attrs: nounwind uwtable
define ptr @lv_freetype_get_context() #0 {
  %1 = load ptr, ptr getelementptr inbounds nuw (%struct._lv_global_t, ptr @lv_global, i32 0, i32 38), align 8, !tbaa !7
  ret ptr %1
}

; Function Attrs: nounwind uwtable
define void @lv_freetype_font_delete(ptr noundef %0) #0 {
  %2 = alloca ptr, align 8
  %3 = alloca ptr, align 8
  %4 = alloca ptr, align 8
  store ptr %0, ptr %2, align 8, !tbaa !20
  br label %5

5:                                                ; preds = %1
  %6 = load ptr, ptr %2, align 8, !tbaa !20
  %7 = icmp ne ptr %6, null
  br i1 %7, label %12, label %8

8:                                                ; preds = %5
  br label %9

9:                                                ; preds = %8
  br label %10

10:                                               ; preds = %9
  br label %11

11:                                               ; preds = %10, %11
  br label %11

12:                                               ; preds = %5
  br label %13

13:                                               ; preds = %12
  call void @llvm.lifetime.start.p0(i64 8, ptr %3) #7
  %14 = call ptr @lv_freetype_get_context()
  store ptr %14, ptr %3, align 8, !tbaa !20
  call void @llvm.lifetime.start.p0(i64 8, ptr %4) #7
  %15 = load ptr, ptr %2, align 8, !tbaa !20
  %16 = getelementptr inbounds nuw %struct._lv_font_t, ptr %15, i32 0, i32 8
  %17 = load ptr, ptr %16, align 8, !tbaa !54
  store ptr %17, ptr %4, align 8, !tbaa !20
  br label %18

18:                                               ; preds = %13
  br label %19

19:                                               ; preds = %18
  %20 = load ptr, ptr %4, align 8, !tbaa !20
  %21 = icmp ne ptr %20, null
  br i1 %21, label %28, label %22

22:                                               ; preds = %19
  br label %23

23:                                               ; preds = %22
  br label %24

24:                                               ; preds = %23
  br label %25

25:                                               ; preds = %24
  br label %26

26:                                               ; preds = %27, %25
  br label %27

27:                                               ; preds = %26
  br label %26

28:                                               ; preds = %19
  br label %29

29:                                               ; preds = %28
  br label %30

30:                                               ; preds = %29
  br label %31

31:                                               ; preds = %30
  %32 = load ptr, ptr %4, align 8, !tbaa !20
  %33 = getelementptr inbounds nuw %struct._lv_freetype_font_dsc_t, ptr %32, i32 0, i32 0
  %34 = load i32, ptr %33, align 8, !tbaa !43
  %35 = icmp eq i32 %34, 1600079444
  br i1 %35, label %42, label %36

36:                                               ; preds = %31
  br label %37

37:                                               ; preds = %36
  br label %38

38:                                               ; preds = %37
  br label %39

39:                                               ; preds = %38
  br label %40

40:                                               ; preds = %41, %39
  br label %41

41:                                               ; preds = %40
  br label %40

42:                                               ; preds = %31
  br label %43

43:                                               ; preds = %42
  br label %44

44:                                               ; preds = %43
  br label %45

45:                                               ; preds = %44
  br label %46

46:                                               ; preds = %45
  %47 = load ptr, ptr %3, align 8, !tbaa !20
  %48 = getelementptr inbounds nuw %struct._lv_freetype_context_t, ptr %47, i32 0, i32 4
  %49 = load ptr, ptr %48, align 8, !tbaa !23
  %50 = load ptr, ptr %4, align 8, !tbaa !20
  %51 = getelementptr inbounds nuw %struct._lv_freetype_font_dsc_t, ptr %50, i32 0, i32 7
  %52 = load ptr, ptr %51, align 8, !tbaa !45
  call void @lv_cache_release(ptr noundef %49, ptr noundef %52, ptr noundef null)
  %53 = load ptr, ptr %4, align 8, !tbaa !20
  %54 = getelementptr inbounds nuw %struct._lv_freetype_font_dsc_t, ptr %53, i32 0, i32 7
  %55 = load ptr, ptr %54, align 8, !tbaa !45
  %56 = call i32 @lv_cache_entry_get_ref(ptr noundef %55)
  %57 = icmp eq i32 %56, 0
  br i1 %57, label %58, label %65

58:                                               ; preds = %46
  %59 = load ptr, ptr %3, align 8, !tbaa !20
  %60 = getelementptr inbounds nuw %struct._lv_freetype_context_t, ptr %59, i32 0, i32 4
  %61 = load ptr, ptr %60, align 8, !tbaa !23
  %62 = load ptr, ptr %4, align 8, !tbaa !20
  %63 = getelementptr inbounds nuw %struct._lv_freetype_font_dsc_t, ptr %62, i32 0, i32 6
  %64 = load ptr, ptr %63, align 8, !tbaa !44
  call void @lv_cache_drop(ptr noundef %61, ptr noundef %64, ptr noundef null)
  br label %65

65:                                               ; preds = %58, %46
  %66 = load ptr, ptr %4, align 8, !tbaa !20
  %67 = getelementptr inbounds nuw %struct._lv_freetype_font_dsc_t, ptr %66, i32 0, i32 5
  %68 = load ptr, ptr %67, align 8, !tbaa !40
  %69 = load ptr, ptr %4, align 8, !tbaa !20
  %70 = getelementptr inbounds nuw %struct._lv_freetype_font_dsc_t, ptr %69, i32 0, i32 8
  %71 = load ptr, ptr %70, align 8, !tbaa !36
  call void @lv_freetype_drop_face_id(ptr noundef %68, ptr noundef %71)
  %72 = load ptr, ptr %4, align 8, !tbaa !20
  call void @lv_memzero(ptr noundef %72, i64 noundef 120)
  %73 = load ptr, ptr %4, align 8, !tbaa !20
  call void @lv_free(ptr noundef %73)
  call void @llvm.lifetime.end.p0(i64 8, ptr %4) #7
  call void @llvm.lifetime.end.p0(i64 8, ptr %3) #7
  ret void
}