; Function Attrs: nounwind uwtable
define void @lv_freetype_font_delete(ptr noundef readonly %0) local_unnamed_addr #0 {
  %.not = icmp eq ptr %0, null
  br i1 %.not, label %.preheader, label %2

.preheader:                                       ; preds = %1, %.preheader
  br label %.preheader

2:                                                ; preds = %1
  %3 = load ptr, ptr getelementptr inbounds nuw (i8, ptr @lv_global, i64 856), align 8, !tbaa !3
  %4 = getelementptr inbounds nuw i8, ptr %0, i64 40
  %5 = load ptr, ptr %4, align 8, !tbaa !59
  %.not14 = icmp eq ptr %5, null
  br i1 %.not14, label %.preheader15, label %6

.preheader15:                                     ; preds = %2, %.preheader15
  br label %.preheader15

6:                                                ; preds = %2
  %7 = load i32, ptr %5, align 8, !tbaa !50
  %8 = icmp eq i32 %7, 1600079444
  br i1 %8, label %9, label %.preheader16

.preheader16:                                     ; preds = %6, %.preheader16
  br label %.preheader16

9:                                                ; preds = %6
  %10 = getelementptr inbounds nuw i8, ptr %3, i64 48
  %11 = load ptr, ptr %10, align 8, !tbaa !21
  %12 = getelementptr inbounds nuw i8, ptr %5, i64 104
  %13 = load ptr, ptr %12, align 8, !tbaa !52
  tail call void @lv_cache_release(ptr noundef %11, ptr noundef %13, ptr noundef null) #8
  %14 = load ptr, ptr %12, align 8, !tbaa !52
  %15 = tail call i32 @lv_cache_entry_get_ref(ptr noundef %14) #8
  %16 = icmp eq i32 %15, 0
  br i1 %16, label %17, label %21

17:                                               ; preds = %9
  %18 = load ptr, ptr %10, align 8, !tbaa !21
  %19 = getelementptr inbounds nuw i8, ptr %5, i64 96
  %20 = load ptr, ptr %19, align 8, !tbaa !51
  tail call void @lv_cache_drop(ptr noundef %18, ptr noundef %20, ptr noundef null) #8
  br label %21

21:                                               ; preds = %17, %9
  %22 = getelementptr inbounds nuw i8, ptr %5, i64 88
  %23 = load ptr, ptr %22, align 8, !tbaa !47
  %24 = getelementptr inbounds nuw i8, ptr %5, i64 112
  %25 = load ptr, ptr %24, align 8, !tbaa !43
  %26 = getelementptr inbounds nuw i8, ptr %23, i64 8
  %27 = tail call ptr @lv_ll_get_head(ptr noundef nonnull %26) #8
  %.not14.i = icmp eq ptr %27, null
  br i1 %.not14.i, label %.preheader.i.preheader, label %.lr.ph.i

.lr.ph.i:                                         ; preds = %21, %37
  %.015.i = phi ptr [ %38, %37 ], [ %27, %21 ]
  %28 = load ptr, ptr %.015.i, align 8, !tbaa !37
  %29 = icmp eq ptr %25, %28
  br i1 %29, label %30, label %37

30:                                               ; preds = %.lr.ph.i
  %31 = getelementptr inbounds nuw i8, ptr %.015.i, i64 8
  %32 = load i32, ptr %31, align 8, !tbaa !39
  %33 = add nsw i32 %32, -1
  store i32 %33, ptr %31, align 8, !tbaa !39
  %34 = icmp eq i32 %33, 0
  br i1 %34, label %35, label %lv_freetype_drop_face_id.exit

35:                                               ; preds = %30
  tail call void @lv_ll_remove(ptr noundef nonnull %26, ptr noundef nonnull %.015.i) #8
  %36 = load ptr, ptr %.015.i, align 8, !tbaa !37
  tail call void @lv_free(ptr noundef %36) #8
  tail call void @lv_free(ptr noundef nonnull %.015.i) #8
  br label %lv_freetype_drop_face_id.exit

37:                                               ; preds = %.lr.ph.i
  %38 = tail call ptr @lv_ll_get_next(ptr noundef nonnull %26, ptr noundef nonnull %.015.i) #8
  %.not.i = icmp eq ptr %38, null
  br i1 %.not.i, label %.preheader.i.preheader, label %.lr.ph.i, !llvm.loop !42

.preheader.i.preheader:                           ; preds = %37, %21
  br label %.preheader.i

.preheader.i:                                     ; preds = %.preheader.i.preheader, %.preheader.i
  br label %.preheader.i

lv_freetype_drop_face_id.exit:                    ; preds = %30, %35
  tail call void @lv_memset(ptr noundef nonnull %5, i8 noundef zeroext 0, i64 noundef 120) #8
  tail call void @lv_free(ptr noundef nonnull %5) #8
  ret void
}